target datalayout = "e-m:e-p270:32:32-p271:32:32-p272:64:64-i64:64-i128:128-f80:128-n8:16:32:64-S128"
target triple = "x86_64-pc-linux-gnu"

%struct.GISTSTATE = type { ptr, ptr, ptr, ptr, ptr, [32 x %struct.FmgrInfo], [32 x %struct.FmgrInfo], [32 x %struct.FmgrInfo], [32 x %struct.FmgrInfo], [32 x %struct.FmgrInfo], [32 x %struct.FmgrInfo], [32 x %struct.FmgrInfo], [32 x %struct.FmgrInfo], [32 x %struct.FmgrInfo], [32 x i32] }
%struct.FmgrInfo = type { ptr, i32, i16, i8, i8, i8, ptr, ptr, ptr }
%struct.TupleDescData = type { i32, i32, i32, i32, ptr, [0 x %struct.CompactAttribute] }
%struct.CompactAttribute = type { i32, i16, i8, i8, i8, i8, i8, i8, i8 }
%struct.GISTENTRY = type { i64, ptr, ptr, i16, i8 }
%struct.RelationData = type { %struct.RelFileLocator, ptr, i32, i32, i8, i8, i8, i8, i8, i32, i32, i32, i32, ptr, ptr, i32, %struct.LockInfoData, ptr, ptr, ptr, ptr, ptr, i8, ptr, ptr, ptr, ptr, ptr, ptr, i32, ptr, i8, ptr, ptr, i32, i8, i32, ptr, i8, ptr, ptr, ptr, ptr, ptr, ptr, ptr, i32, ptr, ptr, ptr, ptr, ptr, ptr, ptr, ptr, ptr, ptr, ptr, ptr, ptr, ptr, ptr, ptr, ptr, ptr, ptr, i32, i8, ptr }
%struct.RelFileLocator = type { i32, i32, i32 }
%struct.LockInfoData = type { %struct.LockRelId }
%struct.LockRelId = type { i32, i32 }
%struct.FormData_pg_index = type { i32, i32, i16, i16, i8, i8, i8, i8, i8, i8, i8, i8, i8, i8, i8, %struct.int2vector }
%struct.int2vector = type { i32, i32, i32, i32, i32, i32, [0 x i16] }

@CurrentMemoryContext = external global ptr, align 8

; Function Attrs: inlinehint nounwind uwtable
define internal ptr @DatumGetPointer(i64 noundef %0) #2 {
  %2 = alloca i64, align 8
  store i64 %0, ptr %2, align 8
  %3 = load i64, ptr %2, align 8
  %4 = inttoptr i64 %3 to ptr
  ret ptr %4
}

; Function Attrs: inlinehint nounwind uwtable
define internal i64 @PointerGetDatum(ptr noundef %0) #2 {
  %2 = alloca ptr, align 8
  store ptr %0, ptr %2, align 8
  %3 = load ptr, ptr %2, align 8
  %4 = ptrtoint ptr %3 to i64
  ret i64 %4
}

; Function Attrs: nounwind uwtable
define internal i64 @gistFetchAtt(ptr noundef %0, i32 noundef %1, i64 noundef %2, ptr noundef %3) #0 {
  %5 = alloca ptr, align 8
  %6 = alloca i32, align 4
  %7 = alloca i64, align 8
  %8 = alloca ptr, align 8
  %9 = alloca %struct.GISTENTRY, align 8
  %10 = alloca ptr, align 8
  store ptr %0, ptr %5, align 8
  store i32 %1, ptr %6, align 4
  store i64 %2, ptr %7, align 8
  store ptr %3, ptr %8, align 8
  call void @llvm.lifetime.start.p0(i64 32, ptr %9) #8
  call void @llvm.lifetime.start.p0(i64 8, ptr %10) #8
  br label %11

11:                                               ; preds = %4
  %12 = load i64, ptr %7, align 8
  %13 = getelementptr inbounds nuw %struct.GISTENTRY, ptr %9, i32 0, i32 0
  store i64 %12, ptr %13, align 8
  %14 = load ptr, ptr %8, align 8
  %15 = getelementptr inbounds nuw %struct.GISTENTRY, ptr %9, i32 0, i32 1
  store ptr %14, ptr %15, align 8
  %16 = getelementptr inbounds nuw %struct.GISTENTRY, ptr %9, i32 0, i32 2
  store ptr null, ptr %16, align 8
  %17 = getelementptr inbounds nuw %struct.GISTENTRY, ptr %9, i32 0, i32 3
  store i16 0, ptr %17, align 8
  %18 = getelementptr inbounds nuw %struct.GISTENTRY, ptr %9, i32 0, i32 4
  store i8 0, ptr %18, align 2
  br label %19

19:                                               ; preds = %11
  br label %20

20:                                               ; preds = %19
  %21 = load ptr, ptr %5, align 8
  %22 = getelementptr inbounds nuw %struct.GISTSTATE, ptr %21, i32 0, i32 13
  %23 = load i32, ptr %6, align 4
  %24 = sext i32 %23 to i64
  %25 = getelementptr inbounds [32 x %struct.FmgrInfo], ptr %22, i64 0, i64 %24
  %26 = load ptr, ptr %5, align 8
  %27 = getelementptr inbounds nuw %struct.GISTSTATE, ptr %26, i32 0, i32 14
  %28 = load i32, ptr %6, align 4
  %29 = sext i32 %28 to i64
  %30 = getelementptr inbounds [32 x i32], ptr %27, i64 0, i64 %29
  %31 = load i32, ptr %30, align 4
  %32 = call i64 @PointerGetDatum(ptr noundef %9)
  %33 = call i64 @FunctionCall1Coll(ptr noundef %25, i32 noundef %31, i64 noundef %32)
  %34 = call ptr @DatumGetPointer(i64 noundef %33)
  store ptr %34, ptr %10, align 8
  %35 = load ptr, ptr %10, align 8
  %36 = getelementptr inbounds nuw %struct.GISTENTRY, ptr %35, i32 0, i32 0
  %37 = load i64, ptr %36, align 8
  call void @llvm.lifetime.end.p0(i64 8, ptr %10) #8
  call void @llvm.lifetime.end.p0(i64 32, ptr %9) #8
  ret i64 %37
}

; Function Attrs: inlinehint nounwind uwtable
define internal ptr @MemoryContextSwitchTo(ptr noundef %0) #2 {
  %2 = alloca ptr, align 8
  %3 = alloca ptr, align 8
  store ptr %0, ptr %2, align 8
  call void @llvm.lifetime.start.p0(i64 8, ptr %3) #8
  %4 = load ptr, ptr @CurrentMemoryContext, align 8
  store ptr %4, ptr %3, align 8
  %5 = load ptr, ptr %2, align 8
  store ptr %5, ptr @CurrentMemoryContext, align 8
  %6 = load ptr, ptr %3, align 8
  call void @llvm.lifetime.end.p0(i64 8, ptr %3) #8
  ret ptr %6
}

; Function Attrs: nounwind uwtable
define dso_local ptr @gistFetchTuple(ptr noundef %0, ptr noundef %1, ptr noundef %2) #0 {
  %4 = alloca ptr, align 8
  %5 = alloca ptr, align 8
  %6 = alloca ptr, align 8
  %7 = alloca ptr, align 8
  %8 = alloca [32 x i64], align 16
  %9 = alloca [32 x i8], align 16
  %10 = alloca i32, align 4
  %11 = alloca i64, align 8
  store ptr %0, ptr %4, align 8
  store ptr %1, ptr %5, align 8
  store ptr %2, ptr %6, align 8
  call void @llvm.lifetime.start.p0(i64 8, ptr %7) #8
  %12 = load ptr, ptr %4, align 8
  %13 = getelementptr inbounds nuw %struct.GISTSTATE, ptr %12, i32 0, i32 1
  %14 = load ptr, ptr %13, align 8
  %15 = call ptr @MemoryContextSwitchTo(ptr noundef %14)
  store ptr %15, ptr %7, align 8
  call void @llvm.lifetime.start.p0(i64 256, ptr %8) #8
  call void @llvm.lifetime.start.p0(i64 32, ptr %9) #8
  call void @llvm.lifetime.start.p0(i64 4, ptr %10) #8
  store i32 0, ptr %10, align 4
  br label %16

16:                                               ; preds = %98, %3
  %17 = load i32, ptr %10, align 4
  %18 = load ptr, ptr %5, align 8
  %19 = getelementptr inbounds nuw %struct.RelationData, ptr %18, i32 0, i32 48
  %20 = load ptr, ptr %19, align 8
  %21 = getelementptr inbounds nuw %struct.FormData_pg_index, ptr %20, i32 0, i32 3
  %22 = load i16, ptr %21, align 2
  %23 = sext i16 %22 to i32
  %24 = icmp slt i32 %17, %23
  br i1 %24, label %25, label %101

25:                                               ; preds = %16
  call void @llvm.lifetime.start.p0(i64 8, ptr %11) #8
  %26 = load ptr, ptr %6, align 8
  %27 = load i32, ptr %10, align 4
  %28 = add i32 %27, 1
  %29 = load ptr, ptr %4, align 8
  %30 = getelementptr inbounds nuw %struct.GISTSTATE, ptr %29, i32 0, i32 2
  %31 = load ptr, ptr %30, align 8
  %32 = load i32, ptr %10, align 4
  %33 = sext i32 %32 to i64
  %34 = getelementptr inbounds [32 x i8], ptr %9, i64 0, i64 %33
  %35 = call i64 @index_getattr(ptr noundef %26, i32 noundef %28, ptr noundef %31, ptr noundef %34)
  store i64 %35, ptr %11, align 8
  %36 = load ptr, ptr %4, align 8
  %37 = getelementptr inbounds nuw %struct.GISTSTATE, ptr %36, i32 0, i32 13
  %38 = load i32, ptr %10, align 4
  %39 = sext i32 %38 to i64
  %40 = getelementptr inbounds [32 x %struct.FmgrInfo], ptr %37, i64 0, i64 %39
  %41 = getelementptr inbounds nuw %struct.FmgrInfo, ptr %40, i32 0, i32 1
  %42 = load i32, ptr %41, align 8
  %43 = icmp ne i32 %42, 0
  br i1 %43, label %44, label %64

44:                                               ; preds = %25
  %45 = load i32, ptr %10, align 4
  %46 = sext i32 %45 to i64
  %47 = getelementptr inbounds [32 x i8], ptr %9, i64 0, i64 %46
  %48 = load i8, ptr %47, align 1, !range !11, !noundef !12
  %49 = trunc i8 %48 to i1
  br i1 %49, label %59, label %50

50:                                               ; preds = %44
  %51 = load ptr, ptr %4, align 8
  %52 = load i32, ptr %10, align 4
  %53 = load i64, ptr %11, align 8
  %54 = load ptr, ptr %5, align 8
  %55 = call i64 @gistFetchAtt(ptr noundef %51, i32 noundef %52, i64 noundef %53, ptr noundef %54)
  %56 = load i32, ptr %10, align 4
  %57 = sext i32 %56 to i64
  %58 = getelementptr inbounds [32 x i64], ptr %8, i64 0, i64 %57
  store i64 %55, ptr %58, align 8
  br label %63

59:                                               ; preds = %44
  %60 = load i32, ptr %10, align 4
  %61 = sext i32 %60 to i64
  %62 = getelementptr inbounds [32 x i64], ptr %8, i64 0, i64 %61
  store i64 0, ptr %62, align 8
  br label %63

63:                                               ; preds = %59, %50
  br label %97

64:                                               ; preds = %25
  %65 = load ptr, ptr %4, align 8
  %66 = getelementptr inbounds nuw %struct.GISTSTATE, ptr %65, i32 0, i32 7
  %67 = load i32, ptr %10, align 4
  %68 = sext i32 %67 to i64
  %69 = getelementptr inbounds [32 x %struct.FmgrInfo], ptr %66, i64 0, i64 %68
  %70 = getelementptr inbounds nuw %struct.FmgrInfo, ptr %69, i32 0, i32 1
  %71 = load i32, ptr %70, align 8
  %72 = icmp eq i32 %71, 0
  br i1 %72, label %73, label %89

73:                                               ; preds = %64
  %74 = load i32, ptr %10, align 4
  %75 = sext i32 %74 to i64
  %76 = getelementptr inbounds [32 x i8], ptr %9, i64 0, i64 %75
  %77 = load i8, ptr %76, align 1, !range !11, !noundef !12
  %78 = trunc i8 %77 to i1
  br i1 %78, label %84, label %79

79:                                               ; preds = %73
  %80 = load i64, ptr %11, align 8
  %81 = load i32, ptr %10, align 4
  %82 = sext i32 %81 to i64
  %83 = getelementptr inbounds [32 x i64], ptr %8, i64 0, i64 %82
  store i64 %80, ptr %83, align 8
  br label %88

84:                                               ; preds = %73
  %85 = load i32, ptr %10, align 4
  %86 = sext i32 %85 to i64
  %87 = getelementptr inbounds [32 x i64], ptr %8, i64 0, i64 %86
  store i64 0, ptr %87, align 8
  br label %88

88:                                               ; preds = %84, %79
  br label %96

89:                                               ; preds = %64
  %90 = load i32, ptr %10, align 4
  %91 = sext i32 %90 to i64
  %92 = getelementptr inbounds [32 x i8], ptr %9, i64 0, i64 %91
  store i8 1, ptr %92, align 1
  %93 = load i32, ptr %10, align 4
  %94 = sext i32 %93 to i64
  %95 = getelementptr inbounds [32 x i64], ptr %8, i64 0, i64 %94
  store i64 0, ptr %95, align 8
  br label %96

96:                                               ; preds = %89, %88
  br label %97

97:                                               ; preds = %96, %63
  call void @llvm.lifetime.end.p0(i64 8, ptr %11) #8
  br label %98

98:                                               ; preds = %97
  %99 = load i32, ptr %10, align 4
  %100 = add i32 %99, 1
  store i32 %100, ptr %10, align 4
  br label %16, !llvm.loop !21

101:                                              ; preds = %16
  br label %102

102:                                              ; preds = %124, %101
  %103 = load i32, ptr %10, align 4
  %104 = load ptr, ptr %5, align 8
  %105 = getelementptr inbounds nuw %struct.RelationData, ptr %104, i32 0, i32 14
  %106 = load ptr, ptr %105, align 8
  %107 = getelementptr inbounds nuw %struct.TupleDescData, ptr %106, i32 0, i32 0
  %108 = load i32, ptr %107, align 8
  %109 = icmp slt i32 %103, %108
  br i1 %109, label %110, label %127

110:                                              ; preds = %102
  %111 = load ptr, ptr %6, align 8
  %112 = load i32, ptr %10, align 4
  %113 = add i32 %112, 1
  %114 = load ptr, ptr %4, align 8
  %115 = getelementptr inbounds nuw %struct.GISTSTATE, ptr %114, i32 0, i32 2
  %116 = load ptr, ptr %115, align 8
  %117 = load i32, ptr %10, align 4
  %118 = sext i32 %117 to i64
  %119 = getelementptr inbounds [32 x i8], ptr %9, i64 0, i64 %118
  %120 = call i64 @index_getattr(ptr noundef %111, i32 noundef %113, ptr noundef %116, ptr noundef %119)
  %121 = load i32, ptr %10, align 4
  %122 = sext i32 %121 to i64
  %123 = getelementptr inbounds [32 x i64], ptr %8, i64 0, i64 %122
  store i64 %120, ptr %123, align 8
  br label %124

124:                                              ; preds = %110
  %125 = load i32, ptr %10, align 4
  %126 = add i32 %125, 1
  store i32 %126, ptr %10, align 4
  br label %102, !llvm.loop !22

127:                                              ; preds = %102
  %128 = load ptr, ptr %7, align 8
  %129 = call ptr @MemoryContextSwitchTo(ptr noundef %128)
  %130 = load ptr, ptr %4, align 8
  %131 = getelementptr inbounds nuw %struct.GISTSTATE, ptr %130, i32 0, i32 4
  %132 = load ptr, ptr %131, align 8
  %133 = getelementptr inbounds [32 x i64], ptr %8, i64 0, i64 0
  %134 = getelementptr inbounds [32 x i8], ptr %9, i64 0, i64 0
  %135 = call ptr @heap_form_tuple(ptr noundef %132, ptr noundef %133, ptr noundef %134)
  call void @llvm.lifetime.end.p0(i64 4, ptr %10) #8
  call void @llvm.lifetime.end.p0(i64 32, ptr %9) #8
  call void @llvm.lifetime.end.p0(i64 256, ptr %8) #8
  call void @llvm.lifetime.end.p0(i64 8, ptr %7) #8
  ret ptr %135
}