; Function Attrs: nounwind uwtable
define dso_local ptr @gistFetchTuple(ptr noundef %0, ptr noundef %1, ptr noundef %2) local_unnamed_addr #0 {
  %4 = alloca %struct.GISTENTRY, align 8
  %5 = alloca [32 x i64], align 16
  %6 = alloca [32 x i8], align 16
  %7 = getelementptr inbounds nuw i8, ptr %0, i64 8
  %8 = load ptr, ptr %7, align 8
  %9 = load ptr, ptr @CurrentMemoryContext, align 8
  store ptr %8, ptr @CurrentMemoryContext, align 8
  call void @llvm.lifetime.start.p0(i64 256, ptr nonnull %5) #11
  call void @llvm.lifetime.start.p0(i64 32, ptr nonnull %6) #11
  %10 = getelementptr inbounds nuw i8, ptr %1, i64 328
  %11 = load ptr, ptr %10, align 8
  %12 = getelementptr inbounds nuw i8, ptr %11, i64 10
  %13 = load i16, ptr %12, align 2
  %14 = icmp sgt i16 %13, 0
  br i1 %14, label %.lr.ph, label %.preheader

.lr.ph:                                           ; preds = %3
  %15 = getelementptr inbounds nuw i8, ptr %0, i64 16
  %16 = getelementptr i8, ptr %0, i64 12336
  %17 = getelementptr inbounds nuw i8, ptr %4, i64 8
  %18 = getelementptr inbounds nuw i8, ptr %4, i64 16
  %19 = getelementptr inbounds nuw i8, ptr %4, i64 24
  %20 = getelementptr inbounds nuw i8, ptr %4, i64 26
  %21 = getelementptr inbounds nuw i8, ptr %0, i64 12328
  %22 = getelementptr inbounds nuw i8, ptr %0, i64 13864
  %23 = ptrtoint ptr %4 to i64
  %24 = getelementptr i8, ptr %0, i64 3120
  br label %31

.preheader:                                       ; preds = %63, %3
  %.0.lcssa = phi i32 [ 0, %3 ], [ %34, %63 ]
  %25 = getelementptr inbounds nuw i8, ptr %1, i64 64
  %26 = load ptr, ptr %25, align 8
  %27 = load i32, ptr %26, align 8
  %28 = icmp slt i32 %.0.lcssa, %27
  br i1 %28, label %.lr.ph37, label %._crit_edge

.lr.ph37:                                         ; preds = %.preheader
  %29 = getelementptr inbounds nuw i8, ptr %0, i64 16
  %30 = zext nneg i32 %.0.lcssa to i64
  br label %69

31:                                               ; preds = %.lr.ph, %63
  %indvars.iv = phi i64 [ 0, %.lr.ph ], [ %indvars.iv.next, %63 ]
  %indvars.iv.next = add nuw nsw i64 %indvars.iv, 1
  %32 = load ptr, ptr %15, align 8
  %33 = getelementptr inbounds nuw [32 x i8], ptr %6, i64 0, i64 %indvars.iv
  %34 = trunc nuw nsw i64 %indvars.iv.next to i32
  %35 = call fastcc i64 @index_getattr(ptr noundef %2, i32 noundef %34, ptr noundef %32, ptr noundef nonnull %33)
  %.idx = mul nuw nsw i64 %indvars.iv, 48
  %36 = getelementptr i8, ptr %16, i64 %.idx
  %37 = load i32, ptr %36, align 8
  %.not = icmp eq i32 %37, 0
  br i1 %.not, label %51, label %38

38:                                               ; preds = %31
  %39 = load i8, ptr %33, align 1, !range !12, !noundef !13
  %40 = trunc nuw i8 %39 to i1
  br i1 %40, label %49, label %41

41:                                               ; preds = %38
  call void @llvm.lifetime.start.p0(i64 32, ptr nonnull %4) #11
  store i64 %35, ptr %4, align 8
  store ptr %1, ptr %17, align 8
  store ptr null, ptr %18, align 8
  store i16 0, ptr %19, align 8
  store i8 0, ptr %20, align 2
  %42 = getelementptr inbounds nuw [32 x %struct.FmgrInfo], ptr %21, i64 0, i64 %indvars.iv
  %43 = getelementptr inbounds nuw [32 x i32], ptr %22, i64 0, i64 %indvars.iv
  %44 = load i32, ptr %43, align 4
  %45 = call i64 @FunctionCall1Coll(ptr noundef nonnull %42, i32 noundef %44, i64 noundef %23) #11
  %46 = inttoptr i64 %45 to ptr
  %47 = load i64, ptr %46, align 8
  call void @llvm.lifetime.end.p0(i64 32, ptr nonnull %4) #11
  %48 = getelementptr inbounds nuw [32 x i64], ptr %5, i64 0, i64 %indvars.iv
  store i64 %47, ptr %48, align 8
  br label %63

49:                                               ; preds = %38
  %50 = getelementptr inbounds nuw [32 x i64], ptr %5, i64 0, i64 %indvars.iv
  store i64 0, ptr %50, align 8
  br label %63

51:                                               ; preds = %31
  %52 = getelementptr i8, ptr %24, i64 %.idx
  %53 = load i32, ptr %52, align 8
  %54 = icmp eq i32 %53, 0
  br i1 %54, label %55, label %61

55:                                               ; preds = %51
  %56 = load i8, ptr %33, align 1, !range !12, !noundef !13
  %57 = trunc nuw i8 %56 to i1
  %58 = getelementptr inbounds nuw [32 x i64], ptr %5, i64 0, i64 %indvars.iv
  br i1 %57, label %60, label %59

59:                                               ; preds = %55
  store i64 %35, ptr %58, align 8
  br label %63

60:                                               ; preds = %55
  store i64 0, ptr %58, align 8
  br label %63

61:                                               ; preds = %51
  store i8 1, ptr %33, align 1
  %62 = getelementptr inbounds nuw [32 x i64], ptr %5, i64 0, i64 %indvars.iv
  store i64 0, ptr %62, align 8
  br label %63

63:                                               ; preds = %61, %60, %59, %41, %49
  %64 = load ptr, ptr %10, align 8
  %65 = getelementptr inbounds nuw i8, ptr %64, i64 10
  %66 = load i16, ptr %65, align 2
  %67 = sext i16 %66 to i64
  %68 = icmp slt i64 %indvars.iv.next, %67
  br i1 %68, label %31, label %.preheader, !llvm.loop !21

69:                                               ; preds = %.lr.ph37, %69
  %indvars.iv39 = phi i64 [ %30, %.lr.ph37 ], [ %indvars.iv.next40, %69 ]
  %indvars.iv.next40 = add nuw nsw i64 %indvars.iv39, 1
  %70 = load ptr, ptr %29, align 8
  %71 = getelementptr inbounds nuw [32 x i8], ptr %6, i64 0, i64 %indvars.iv39
  %72 = trunc nuw nsw i64 %indvars.iv.next40 to i32
  %73 = call fastcc i64 @index_getattr(ptr noundef %2, i32 noundef %72, ptr noundef %70, ptr noundef nonnull %71)
  %74 = getelementptr inbounds nuw [32 x i64], ptr %5, i64 0, i64 %indvars.iv39
  store i64 %73, ptr %74, align 8
  %75 = load ptr, ptr %25, align 8
  %76 = load i32, ptr %75, align 8
  %77 = sext i32 %76 to i64
  %78 = icmp slt i64 %indvars.iv.next40, %77
  br i1 %78, label %69, label %._crit_edge, !llvm.loop !22

._crit_edge:                                      ; preds = %69, %.preheader
  store ptr %9, ptr @CurrentMemoryContext, align 8
  %79 = getelementptr inbounds nuw i8, ptr %0, i64 32
  %80 = load ptr, ptr %79, align 8
  %81 = call ptr @heap_form_tuple(ptr noundef %80, ptr noundef nonnull %5, ptr noundef nonnull %6) #11
  call void @llvm.lifetime.end.p0(i64 32, ptr nonnull %6) #11
  call void @llvm.lifetime.end.p0(i64 256, ptr nonnull %5) #11
  ret ptr %81
}